target datalayout = "e-m:e-p270:32:32-p271:32:32-p272:64:64-i64:64-i128:128-f80:128-n8:16:32:64-S128"
target triple = "x86_64-pc-linux-gnu"

%struct.game_version = type { i8, i8, i8, i16 }
%struct._packet_info = type { ptr, ptr, i32, i32, %struct.nstime_t, %struct.nstime_t, %struct.nstime_t, i32, ptr, ptr, ptr, ptr, %struct._address, %struct._address, %struct._address, %struct._address, %struct._address, %struct._address, i32, ptr, i32, %struct.anon, i32, i32, i32, i32, ptr, i32, ptr, ptr, i16, i16, i32, i32, i16, i32, i32, ptr, ptr, ptr, i8, i8, i16, i16, i16, i32, i16, i16, ptr, ptr, ptr, ptr, ptr, i32 }
%struct.nstime_t = type { i64, i32 }
%struct._address = type { i32, i32, ptr, ptr }
%struct.anon = type { i8, [3 x i8] }

@hf_wow_protocol_version = internal global i32 0, align 4
@hf_wow_pkt_size = internal global i32 0, align 4
@hf_wow_gamename = internal global i32 0, align 4
@hf_wow_version1 = internal global i32 0, align 4
@hf_wow_version2 = internal global i32 0, align 4
@hf_wow_version3 = internal global i32 0, align 4
@hf_wow_build = internal global i32 0, align 4
@hf_wow_platform = internal global i32 0, align 4
@hf_wow_os = internal global i32 0, align 4
@hf_wow_country = internal global i32 0, align 4
@hf_wow_timezone_bias = internal global i32 0, align 4
@hf_wow_ip = internal global i32 0, align 4
@hf_wow_srp_i_len = internal global i32 0, align 4
@hf_wow_srp_i = internal global i32 0, align 4
@client_game_version = internal global %struct.game_version { i8 -1, i8 -1, i8 -1, i16 -1 }, align 2

; Function Attrs: nounwind uwtable
define internal void @parse_logon_challenge_client_to_server(ptr noundef %0, ptr noundef %1, ptr noundef %2, i32 noundef %3) #0 {
  %5 = alloca ptr, align 8
  %6 = alloca ptr, align 8
  %7 = alloca ptr, align 8
  %8 = alloca i32, align 4
  %9 = alloca i8, align 1
  %10 = alloca ptr, align 8
  store ptr %0, ptr %5, align 8
  store ptr %1, ptr %6, align 8
  store ptr %2, ptr %7, align 8
  store i32 %3, ptr %8, align 4
  %11 = load ptr, ptr %7, align 8
  %12 = load i32, ptr @hf_wow_protocol_version, align 4
  %13 = load ptr, ptr %6, align 8
  %14 = load i32, ptr %8, align 4
  %15 = call ptr @proto_tree_add_item(ptr noundef %11, i32 noundef %12, ptr noundef %13, i32 noundef %14, i32 noundef 1, i32 noundef -2147483648)
  %16 = load i32, ptr %8, align 4
  %17 = add i32 %16, 1
  store i32 %17, ptr %8, align 4
  %18 = load ptr, ptr %7, align 8
  %19 = load i32, ptr @hf_wow_pkt_size, align 4
  %20 = load ptr, ptr %6, align 8
  %21 = load i32, ptr %8, align 4
  %22 = call ptr @proto_tree_add_item(ptr noundef %18, i32 noundef %19, ptr noundef %20, i32 noundef %21, i32 noundef 2, i32 noundef -2147483648)
  %23 = load i32, ptr %8, align 4
  %24 = add i32 %23, 2
  store i32 %24, ptr %8, align 4
  %25 = load ptr, ptr %5, align 8
  %26 = getelementptr inbounds %struct._packet_info, ptr %25, i32 0, i32 50
  %27 = load ptr, ptr %26, align 8
  %28 = load ptr, ptr %6, align 8
  %29 = load i32, ptr %8, align 4
  %30 = call ptr @tvb_get_string_enc(ptr noundef %27, ptr noundef %28, i32 noundef %29, i32 noundef 4, i32 noundef 0)
  store ptr %30, ptr %10, align 8
  %31 = load ptr, ptr %10, align 8
  %32 = call ptr @g_utf8_strreverse(ptr noundef %31, i64 noundef -1)
  store ptr %32, ptr %10, align 8
  %33 = load ptr, ptr %7, align 8
  %34 = load i32, ptr @hf_wow_gamename, align 4
  %35 = load ptr, ptr %6, align 8
  %36 = load i32, ptr %8, align 4
  %37 = load ptr, ptr %10, align 8
  %38 = call ptr @proto_tree_add_string(ptr noundef %33, i32 noundef %34, ptr noundef %35, i32 noundef %36, i32 noundef 4, ptr noundef %37)
  %39 = load ptr, ptr %10, align 8
  call void @g_free(ptr noundef %39)
  %40 = load i32, ptr %8, align 4
  %41 = add i32 %40, 4
  store i32 %41, ptr %8, align 4
  %42 = load ptr, ptr %6, align 8
  %43 = load i32, ptr %8, align 4
  %44 = call zeroext i8 @tvb_get_guint8(ptr noundef %42, i32 noundef %43)
  store i8 %44, ptr @client_game_version, align 2
  %45 = load ptr, ptr %7, align 8
  %46 = load i32, ptr @hf_wow_version1, align 4
  %47 = load ptr, ptr %6, align 8
  %48 = load i32, ptr %8, align 4
  %49 = call ptr @proto_tree_add_item(ptr noundef %45, i32 noundef %46, ptr noundef %47, i32 noundef %48, i32 noundef 1, i32 noundef -2147483648)
  %50 = load i32, ptr %8, align 4
  %51 = add i32 %50, 1
  store i32 %51, ptr %8, align 4
  %52 = load ptr, ptr %6, align 8
  %53 = load i32, ptr %8, align 4
  %54 = call zeroext i8 @tvb_get_guint8(ptr noundef %52, i32 noundef %53)
  %55 = getelementptr inbounds %struct.game_version, ptr @client_game_version, i32 0, i32 1
  store i8 %54, ptr %55, align 1
  %56 = load ptr, ptr %7, align 8
  %57 = load i32, ptr @hf_wow_version2, align 4
  %58 = load ptr, ptr %6, align 8
  %59 = load i32, ptr %8, align 4
  %60 = call ptr @proto_tree_add_item(ptr noundef %56, i32 noundef %57, ptr noundef %58, i32 noundef %59, i32 noundef 1, i32 noundef -2147483648)
  %61 = load i32, ptr %8, align 4
  %62 = add i32 %61, 1
  store i32 %62, ptr %8, align 4
  %63 = load ptr, ptr %6, align 8
  %64 = load i32, ptr %8, align 4
  %65 = call zeroext i8 @tvb_get_guint8(ptr noundef %63, i32 noundef %64)
  %66 = getelementptr inbounds %struct.game_version, ptr @client_game_version, i32 0, i32 2
  store i8 %65, ptr %66, align 2
  %67 = load ptr, ptr %7, align 8
  %68 = load i32, ptr @hf_wow_version3, align 4
  %69 = load ptr, ptr %6, align 8
  %70 = load i32, ptr %8, align 4
  %71 = call ptr @proto_tree_add_item(ptr noundef %67, i32 noundef %68, ptr noundef %69, i32 noundef %70, i32 noundef 1, i32 noundef -2147483648)
  %72 = load i32, ptr %8, align 4
  %73 = add i32 %72, 1
  store i32 %73, ptr %8, align 4
  %74 = load ptr, ptr %6, align 8
  %75 = load i32, ptr %8, align 4
  %76 = call zeroext i16 @tvb_get_guint16(ptr noundef %74, i32 noundef %75, i32 noundef -2147483648)
  %77 = getelementptr inbounds %struct.game_version, ptr @client_game_version, i32 0, i32 3
  store i16 %76, ptr %77, align 2
  %78 = load ptr, ptr %7, align 8
  %79 = load i32, ptr @hf_wow_build, align 4
  %80 = load ptr, ptr %6, align 8
  %81 = load i32, ptr %8, align 4
  %82 = call ptr @proto_tree_add_item(ptr noundef %78, i32 noundef %79, ptr noundef %80, i32 noundef %81, i32 noundef 2, i32 noundef -2147483648)
  %83 = load i32, ptr %8, align 4
  %84 = add i32 %83, 2
  store i32 %84, ptr %8, align 4
  %85 = load ptr, ptr %5, align 8
  %86 = getelementptr inbounds %struct._packet_info, ptr %85, i32 0, i32 50
  %87 = load ptr, ptr %86, align 8
  %88 = load ptr, ptr %6, align 8
  %89 = load i32, ptr %8, align 4
  %90 = call ptr @tvb_get_string_enc(ptr noundef %87, ptr noundef %88, i32 noundef %89, i32 noundef 4, i32 noundef 0)
  store ptr %90, ptr %10, align 8
  %91 = load ptr, ptr %10, align 8
  %92 = call ptr @g_utf8_strreverse(ptr noundef %91, i64 noundef -1)
  store ptr %92, ptr %10, align 8
  %93 = load ptr, ptr %7, align 8
  %94 = load i32, ptr @hf_wow_platform, align 4
  %95 = load ptr, ptr %6, align 8
  %96 = load i32, ptr %8, align 4
  %97 = load ptr, ptr %10, align 8
  %98 = call ptr @proto_tree_add_string(ptr noundef %93, i32 noundef %94, ptr noundef %95, i32 noundef %96, i32 noundef 4, ptr noundef %97)
  %99 = load ptr, ptr %10, align 8
  call void @g_free(ptr noundef %99)
  %100 = load i32, ptr %8, align 4
  %101 = add i32 %100, 4
  store i32 %101, ptr %8, align 4
  %102 = load ptr, ptr %5, align 8
  %103 = getelementptr inbounds %struct._packet_info, ptr %102, i32 0, i32 50
  %104 = load ptr, ptr %103, align 8
  %105 = load ptr, ptr %6, align 8
  %106 = load i32, ptr %8, align 4
  %107 = call ptr @tvb_get_string_enc(ptr noundef %104, ptr noundef %105, i32 noundef %106, i32 noundef 4, i32 noundef 0)
  store ptr %107, ptr %10, align 8
  %108 = load ptr, ptr %10, align 8
  %109 = call ptr @g_utf8_strreverse(ptr noundef %108, i64 noundef -1)
  store ptr %109, ptr %10, align 8
  %110 = load ptr, ptr %7, align 8
  %111 = load i32, ptr @hf_wow_os, align 4
  %112 = load ptr, ptr %6, align 8
  %113 = load i32, ptr %8, align 4
  %114 = load ptr, ptr %10, align 8
  %115 = call ptr @proto_tree_add_string(ptr noundef %110, i32 noundef %111, ptr noundef %112, i32 noundef %113, i32 noundef 4, ptr noundef %114)
  %116 = load ptr, ptr %10, align 8
  call void @g_free(ptr noundef %116)
  %117 = load i32, ptr %8, align 4
  %118 = add i32 %117, 4
  store i32 %118, ptr %8, align 4
  %119 = load ptr, ptr %5, align 8
  %120 = getelementptr inbounds %struct._packet_info, ptr %119, i32 0, i32 50
  %121 = load ptr, ptr %120, align 8
  %122 = load ptr, ptr %6, align 8
  %123 = load i32, ptr %8, align 4
  %124 = call ptr @tvb_get_string_enc(ptr noundef %121, ptr noundef %122, i32 noundef %123, i32 noundef 4, i32 noundef 0)
  store ptr %124, ptr %10, align 8
  %125 = load ptr, ptr %10, align 8
  %126 = call ptr @g_utf8_strreverse(ptr noundef %125, i64 noundef -1)
  store ptr %126, ptr %10, align 8
  %127 = load ptr, ptr %7, align 8
  %128 = load i32, ptr @hf_wow_country, align 4
  %129 = load ptr, ptr %6, align 8
  %130 = load i32, ptr %8, align 4
  %131 = load ptr, ptr %10, align 8
  %132 = call ptr @proto_tree_add_string(ptr noundef %127, i32 noundef %128, ptr noundef %129, i32 noundef %130, i32 noundef 4, ptr noundef %131)
  %133 = load ptr, ptr %10, align 8
  call void @g_free(ptr noundef %133)
  %134 = load i32, ptr %8, align 4
  %135 = add i32 %134, 4
  store i32 %135, ptr %8, align 4
  %136 = load ptr, ptr %7, align 8
  %137 = load i32, ptr @hf_wow_timezone_bias, align 4
  %138 = load ptr, ptr %6, align 8
  %139 = load i32, ptr %8, align 4
  %140 = call ptr @proto_tree_add_item(ptr noundef %136, i32 noundef %137, ptr noundef %138, i32 noundef %139, i32 noundef 4, i32 noundef -2147483648)
  %141 = load i32, ptr %8, align 4
  %142 = add i32 %141, 4
  store i32 %142, ptr %8, align 4
  %143 = load ptr, ptr %7, align 8
  %144 = load i32, ptr @hf_wow_ip, align 4
  %145 = load ptr, ptr %6, align 8
  %146 = load i32, ptr %8, align 4
  %147 = call ptr @proto_tree_add_item(ptr noundef %143, i32 noundef %144, ptr noundef %145, i32 noundef %146, i32 noundef 4, i32 noundef 0)
  %148 = load i32, ptr %8, align 4
  %149 = add i32 %148, 4
  store i32 %149, ptr %8, align 4
  %150 = load ptr, ptr %7, align 8
  %151 = load i32, ptr @hf_wow_srp_i_len, align 4
  %152 = load ptr, ptr %6, align 8
  %153 = load i32, ptr %8, align 4
  %154 = call ptr @proto_tree_add_item(ptr noundef %150, i32 noundef %151, ptr noundef %152, i32 noundef %153, i32 noundef 1, i32 noundef -2147483648)
  %155 = load ptr, ptr %6, align 8
  %156 = load i32, ptr %8, align 4
  %157 = call zeroext i8 @tvb_get_guint8(ptr noundef %155, i32 noundef %156)
  store i8 %157, ptr %9, align 1
  %158 = load i32, ptr %8, align 4
  %159 = add i32 %158, 1
  store i32 %159, ptr %8, align 4
  %160 = load ptr, ptr %7, align 8
  %161 = load i32, ptr @hf_wow_srp_i, align 4
  %162 = load ptr, ptr %6, align 8
  %163 = load i32, ptr %8, align 4
  %164 = load i8, ptr %9, align 1
  %165 = zext i8 %164 to i32
  %166 = call ptr @proto_tree_add_item(ptr noundef %160, i32 noundef %161, ptr noundef %162, i32 noundef %163, i32 noundef %165, i32 noundef 2)
  ret void
}