; Function Attrs: nounwind uwtable
define internal fastcc void @parse_logon_challenge_client_to_server(ptr noundef readonly captures(none) %0, ptr noundef %1, ptr noundef %2) unnamed_addr #0 {
  %4 = load i32, ptr @hf_wow_protocol_version, align 4
  %5 = tail call ptr @proto_tree_add_item(ptr noundef %2, i32 noundef %4, ptr noundef %1, i32 noundef 1, i32 noundef 1, i32 noundef -2147483648) #3
  %6 = load i32, ptr @hf_wow_pkt_size, align 4
  %7 = tail call ptr @proto_tree_add_item(ptr noundef %2, i32 noundef %6, ptr noundef %1, i32 noundef 2, i32 noundef 2, i32 noundef -2147483648) #3
  %8 = getelementptr inbounds nuw i8, ptr %0, i64 408
  %9 = load ptr, ptr %8, align 8
  %10 = tail call ptr @tvb_get_string_enc(ptr noundef %9, ptr noundef %1, i32 noundef 4, i32 noundef 4, i32 noundef 0) #3
  %11 = tail call ptr @g_utf8_strreverse(ptr noundef %10, i64 noundef -1) #3
  %12 = load i32, ptr @hf_wow_gamename, align 4
  %13 = tail call ptr @proto_tree_add_string(ptr noundef %2, i32 noundef %12, ptr noundef %1, i32 noundef 4, i32 noundef 4, ptr noundef %11) #3
  tail call void @g_free(ptr noundef %11) #3
  %14 = tail call zeroext i8 @tvb_get_guint8(ptr noundef %1, i32 noundef 8) #3
  store i8 %14, ptr @client_game_version.0, align 2
  %15 = load i32, ptr @hf_wow_version1, align 4
  %16 = tail call ptr @proto_tree_add_item(ptr noundef %2, i32 noundef %15, ptr noundef %1, i32 noundef 8, i32 noundef 1, i32 noundef -2147483648) #3
  %17 = tail call zeroext i8 @tvb_get_guint8(ptr noundef %1, i32 noundef 9) #3
  store i8 %17, ptr @client_game_version.1, align 1
  %18 = load i32, ptr @hf_wow_version2, align 4
  %19 = tail call ptr @proto_tree_add_item(ptr noundef %2, i32 noundef %18, ptr noundef %1, i32 noundef 9, i32 noundef 1, i32 noundef -2147483648) #3
  %20 = tail call zeroext i8 @tvb_get_guint8(ptr noundef %1, i32 noundef 10) #3
  store i8 %20, ptr @client_game_version.2, align 2
  %21 = load i32, ptr @hf_wow_version3, align 4
  %22 = tail call ptr @proto_tree_add_item(ptr noundef %2, i32 noundef %21, ptr noundef %1, i32 noundef 10, i32 noundef 1, i32 noundef -2147483648) #3
  %23 = tail call zeroext i16 @tvb_get_guint16(ptr noundef %1, i32 noundef 11, i32 noundef -2147483648) #3
  %24 = load i32, ptr @hf_wow_build, align 4
  %25 = tail call ptr @proto_tree_add_item(ptr noundef %2, i32 noundef %24, ptr noundef %1, i32 noundef 11, i32 noundef 2, i32 noundef -2147483648) #3
  %26 = load ptr, ptr %8, align 8
  %27 = tail call ptr @tvb_get_string_enc(ptr noundef %26, ptr noundef %1, i32 noundef 13, i32 noundef 4, i32 noundef 0) #3
  %28 = tail call ptr @g_utf8_strreverse(ptr noundef %27, i64 noundef -1) #3
  %29 = load i32, ptr @hf_wow_platform, align 4
  %30 = tail call ptr @proto_tree_add_string(ptr noundef %2, i32 noundef %29, ptr noundef %1, i32 noundef 13, i32 noundef 4, ptr noundef %28) #3
  tail call void @g_free(ptr noundef %28) #3
  %31 = load ptr, ptr %8, align 8
  %32 = tail call ptr @tvb_get_string_enc(ptr noundef %31, ptr noundef %1, i32 noundef 17, i32 noundef 4, i32 noundef 0) #3
  %33 = tail call ptr @g_utf8_strreverse(ptr noundef %32, i64 noundef -1) #3
  %34 = load i32, ptr @hf_wow_os, align 4
  %35 = tail call ptr @proto_tree_add_string(ptr noundef %2, i32 noundef %34, ptr noundef %1, i32 noundef 17, i32 noundef 4, ptr noundef %33) #3
  tail call void @g_free(ptr noundef %33) #3
  %36 = load ptr, ptr %8, align 8
  %37 = tail call ptr @tvb_get_string_enc(ptr noundef %36, ptr noundef %1, i32 noundef 21, i32 noundef 4, i32 noundef 0) #3
  %38 = tail call ptr @g_utf8_strreverse(ptr noundef %37, i64 noundef -1) #3
  %39 = load i32, ptr @hf_wow_country, align 4
  %40 = tail call ptr @proto_tree_add_string(ptr noundef %2, i32 noundef %39, ptr noundef %1, i32 noundef 21, i32 noundef 4, ptr noundef %38) #3
  tail call void @g_free(ptr noundef %38) #3
  %41 = load i32, ptr @hf_wow_timezone_bias, align 4
  %42 = tail call ptr @proto_tree_add_item(ptr noundef %2, i32 noundef %41, ptr noundef %1, i32 noundef 25, i32 noundef 4, i32 noundef -2147483648) #3
  %43 = load i32, ptr @hf_wow_ip, align 4
  %44 = tail call ptr @proto_tree_add_item(ptr noundef %2, i32 noundef %43, ptr noundef %1, i32 noundef 29, i32 noundef 4, i32 noundef 0) #3
  %45 = load i32, ptr @hf_wow_srp_i_len, align 4
  %46 = tail call ptr @proto_tree_add_item(ptr noundef %2, i32 noundef %45, ptr noundef %1, i32 noundef 33, i32 noundef 1, i32 noundef -2147483648) #3
  %47 = tail call zeroext i8 @tvb_get_guint8(ptr noundef %1, i32 noundef 33) #3
  %48 = load i32, ptr @hf_wow_srp_i, align 4
  %49 = zext i8 %47 to i32
  %50 = tail call ptr @proto_tree_add_item(ptr noundef %2, i32 noundef %48, ptr noundef %1, i32 noundef 34, i32 noundef %49, i32 noundef 2) #3
  ret void
}